target datalayout = "e-m:e-p270:32:32-p271:32:32-p272:64:64-i64:64-i128:128-f80:128-n8:16:32:64-S128"
target triple = "x86_64-pc-linux-gnu"

%struct.wtap_rec = type { i32, i32, i32, %struct.nstime_t, i32, %struct.nstime_t, i8, %union.anon, ptr, i8, %struct.Buffer, %struct.Buffer }
%struct.nstime_t = type { i64, i32 }
%union.anon = type { %struct.wtap_packet_header }
%struct.wtap_packet_header = type { i32, i32, i32, i32, %union.wtap_pseudo_header }
%union.wtap_pseudo_header = type { %struct.erf_mc_phdr }
%struct.erf_mc_phdr = type { %struct.erf_phdr, [16 x %struct.erf_ehdr], %union.anon.1 }
%struct.erf_phdr = type { i64, i8, i8, i16, i16, i16 }
%struct.erf_ehdr = type { i64 }
%union.anon.1 = type { i32 }
%struct.Buffer = type { ptr, i64, i64, i64 }
%struct.netxrayrec_1_x_hdr = type { i32, i32, i16, i16, [16 x i8] }
%struct.wtap_dumper = type { ptr, i32, i32, i32, i32, i8, i64, ptr, ptr, ptr, ptr, ptr, ptr, ptr, ptr, ptr, ptr, ptr, ptr, ptr, i32, i32, i32 }
%struct.netxray_dump_t = type { i8, i32, i32 }

; Function Attrs: alwaysinline nounwind
define internal ptr @memset.inline(ptr %0, i32 %1, i64 %2) #9 {
  %4 = alloca ptr, align 8
  %5 = alloca i32, align 4
  %6 = alloca i64, align 8
  store ptr %0, ptr %4, align 8
  store i32 %1, ptr %5, align 4
  store i64 %2, ptr %6, align 8
  %7 = load ptr, ptr %4, align 8
  %8 = load i32, ptr %5, align 4
  %9 = load i64, ptr %6, align 8
  %10 = load ptr, ptr %4, align 8
  %11 = call i64 @llvm.objectsize.i64.p0(ptr %10, i1 false, i1 true, i1 true)
  %12 = call ptr @__memset_chk(ptr noundef %7, i32 noundef %8, i64 noundef %9, i64 noundef %11) #12
  ret ptr %12
}

; Function Attrs: null_pointer_is_valid sspstrong uwtable
define internal zeroext i1 @netxray_dump_1_1(ptr noundef %0, ptr noundef %1, ptr noundef %2, ptr noundef %3, ptr noundef %4) #0 {
  %6 = alloca i1, align 1
  %7 = alloca ptr, align 8
  %8 = alloca ptr, align 8
  %9 = alloca ptr, align 8
  %10 = alloca ptr, align 8
  %11 = alloca ptr, align 8
  %12 = alloca ptr, align 8
  %13 = alloca i64, align 8
  %14 = alloca i32, align 4
  %15 = alloca %struct.netxrayrec_1_x_hdr, align 4
  %16 = alloca i32, align 4
  store ptr %0, ptr %7, align 8
  store ptr %1, ptr %8, align 8
  store ptr %2, ptr %9, align 8
  store ptr %3, ptr %10, align 8
  store ptr %4, ptr %11, align 8
  call void @llvm.lifetime.start.p0(i64 8, ptr %12) #12
  %17 = load ptr, ptr %7, align 8
  %18 = getelementptr inbounds nuw %struct.wtap_dumper, ptr %17, i32 0, i32 7
  %19 = load ptr, ptr %18, align 8
  store ptr %19, ptr %12, align 8
  call void @llvm.lifetime.start.p0(i64 8, ptr %13) #12
  call void @llvm.lifetime.start.p0(i64 4, ptr %14) #12
  call void @llvm.lifetime.start.p0(i64 28, ptr %15) #12
  %20 = load ptr, ptr %8, align 8
  %21 = getelementptr inbounds nuw %struct.wtap_rec, ptr %20, i32 0, i32 0
  %22 = load i32, ptr %21, align 8
  %23 = icmp ne i32 %22, 0
  br i1 %23, label %24, label %26

24:                                               ; preds = %5
  %25 = load ptr, ptr %10, align 8
  store i32 -24, ptr %25, align 4
  store i1 false, ptr %6, align 1
  store i32 1, ptr %16, align 4
  br label %135

26:                                               ; preds = %5
  %27 = load ptr, ptr %7, align 8
  %28 = getelementptr inbounds nuw %struct.wtap_dumper, ptr %27, i32 0, i32 3
  %29 = load i32, ptr %28, align 8
  %30 = load ptr, ptr %8, align 8
  %31 = getelementptr inbounds nuw %struct.wtap_rec, ptr %30, i32 0, i32 7
  %32 = getelementptr inbounds nuw %struct.wtap_packet_header, ptr %31, i32 0, i32 2
  %33 = load i32, ptr %32, align 8
  %34 = icmp ne i32 %29, %33
  br i1 %34, label %35, label %37

35:                                               ; preds = %26
  %36 = load ptr, ptr %10, align 8
  store i32 -9, ptr %36, align 4
  store i1 false, ptr %6, align 1
  store i32 1, ptr %16, align 4
  br label %135

37:                                               ; preds = %26
  %38 = load ptr, ptr %8, align 8
  %39 = getelementptr inbounds nuw %struct.wtap_rec, ptr %38, i32 0, i32 7
  %40 = getelementptr inbounds nuw %struct.wtap_packet_header, ptr %39, i32 0, i32 0
  %41 = load i32, ptr %40, align 8
  %42 = icmp ugt i32 %41, 65535
  br i1 %42, label %43, label %45

43:                                               ; preds = %37
  %44 = load ptr, ptr %10, align 8
  store i32 -22, ptr %44, align 4
  store i1 false, ptr %6, align 1
  store i32 1, ptr %16, align 4
  br label %135

45:                                               ; preds = %37
  %46 = load ptr, ptr %12, align 8
  %47 = getelementptr inbounds nuw %struct.netxray_dump_t, ptr %46, i32 0, i32 0
  %48 = load i8, ptr %47, align 4, !range !6, !noundef !7
  %49 = trunc i8 %48 to i1
  br i1 %49, label %50, label %74

50:                                               ; preds = %45
  %51 = load ptr, ptr %12, align 8
  %52 = getelementptr inbounds nuw %struct.netxray_dump_t, ptr %51, i32 0, i32 0
  store i8 0, ptr %52, align 4
  %53 = load ptr, ptr %8, align 8
  %54 = getelementptr inbounds nuw %struct.wtap_rec, ptr %53, i32 0, i32 3
  %55 = getelementptr inbounds nuw %struct.nstime_t, ptr %54, i32 0, i32 0
  %56 = load i64, ptr %55, align 8
  %57 = icmp slt i64 %56, 0
  br i1 %57, label %64, label %58

58:                                               ; preds = %50
  %59 = load ptr, ptr %8, align 8
  %60 = getelementptr inbounds nuw %struct.wtap_rec, ptr %59, i32 0, i32 3
  %61 = getelementptr inbounds nuw %struct.nstime_t, ptr %60, i32 0, i32 0
  %62 = load i64, ptr %61, align 8
  %63 = icmp sgt i64 %62, 4294967295
  br i1 %63, label %64, label %66

64:                                               ; preds = %58, %50
  %65 = load ptr, ptr %10, align 8
  store i32 -27, ptr %65, align 4
  store i1 false, ptr %6, align 1
  store i32 1, ptr %16, align 4
  br label %135

66:                                               ; preds = %58
  %67 = load ptr, ptr %8, align 8
  %68 = getelementptr inbounds nuw %struct.wtap_rec, ptr %67, i32 0, i32 3
  %69 = getelementptr inbounds nuw %struct.nstime_t, ptr %68, i32 0, i32 0
  %70 = load i64, ptr %69, align 8
  %71 = trunc i64 %70 to i32
  %72 = load ptr, ptr %12, align 8
  %73 = getelementptr inbounds nuw %struct.netxray_dump_t, ptr %72, i32 0, i32 1
  store i32 %71, ptr %73, align 4
  br label %74

74:                                               ; preds = %66, %45
  %75 = call ptr @memset.inline(ptr noundef %15, i32 noundef 0, i64 noundef 28) #12
  %76 = load ptr, ptr %8, align 8
  %77 = getelementptr inbounds nuw %struct.wtap_rec, ptr %76, i32 0, i32 3
  %78 = getelementptr inbounds nuw %struct.nstime_t, ptr %77, i32 0, i32 0
  %79 = load i64, ptr %78, align 8
  %80 = load ptr, ptr %12, align 8
  %81 = getelementptr inbounds nuw %struct.netxray_dump_t, ptr %80, i32 0, i32 1
  %82 = load i32, ptr %81, align 4
  %83 = zext i32 %82 to i64
  %84 = sub i64 %79, %83
  %85 = mul i64 %84, 1000000
  %86 = load ptr, ptr %8, align 8
  %87 = getelementptr inbounds nuw %struct.wtap_rec, ptr %86, i32 0, i32 3
  %88 = getelementptr inbounds nuw %struct.nstime_t, ptr %87, i32 0, i32 1
  %89 = load i32, ptr %88, align 8
  %90 = sext i32 %89 to i64
  %91 = udiv i64 %90, 1000
  %92 = add i64 %85, %91
  store i64 %92, ptr %13, align 8
  %93 = load i64, ptr %13, align 8
  %94 = urem i64 %93, 4294967296
  %95 = trunc i64 %94 to i32
  store i32 %95, ptr %14, align 4
  %96 = load i32, ptr %14, align 4
  %97 = getelementptr inbounds nuw %struct.netxrayrec_1_x_hdr, ptr %15, i32 0, i32 0
  store i32 %96, ptr %97, align 4
  %98 = load i64, ptr %13, align 8
  %99 = udiv i64 %98, 4294967296
  %100 = trunc i64 %99 to i32
  store i32 %100, ptr %14, align 4
  %101 = load i32, ptr %14, align 4
  %102 = getelementptr inbounds nuw %struct.netxrayrec_1_x_hdr, ptr %15, i32 0, i32 1
  store i32 %101, ptr %102, align 4
  %103 = load ptr, ptr %8, align 8
  %104 = getelementptr inbounds nuw %struct.wtap_rec, ptr %103, i32 0, i32 7
  %105 = getelementptr inbounds nuw %struct.wtap_packet_header, ptr %104, i32 0, i32 1
  %106 = load i32, ptr %105, align 4
  %107 = trunc i32 %106 to i16
  %108 = getelementptr inbounds nuw %struct.netxrayrec_1_x_hdr, ptr %15, i32 0, i32 2
  store i16 %107, ptr %108, align 4
  %109 = load ptr, ptr %8, align 8
  %110 = getelementptr inbounds nuw %struct.wtap_rec, ptr %109, i32 0, i32 7
  %111 = getelementptr inbounds nuw %struct.wtap_packet_header, ptr %110, i32 0, i32 0
  %112 = load i32, ptr %111, align 8
  %113 = trunc i32 %112 to i16
  %114 = getelementptr inbounds nuw %struct.netxrayrec_1_x_hdr, ptr %15, i32 0, i32 3
  store i16 %113, ptr %114, align 2
  %115 = load ptr, ptr %7, align 8
  %116 = load ptr, ptr %10, align 8
  %117 = call zeroext i1 @wtap_dump_file_write(ptr noundef %115, ptr noundef %15, i64 noundef 28, ptr noundef %116)
  br i1 %117, label %119, label %118

118:                                              ; preds = %74
  store i1 false, ptr %6, align 1
  store i32 1, ptr %16, align 4
  br label %135

119:                                              ; preds = %74
  %120 = load ptr, ptr %7, align 8
  %121 = load ptr, ptr %9, align 8
  %122 = load ptr, ptr %8, align 8
  %123 = getelementptr inbounds nuw %struct.wtap_rec, ptr %122, i32 0, i32 7
  %124 = getelementptr inbounds nuw %struct.wtap_packet_header, ptr %123, i32 0, i32 0
  %125 = load i32, ptr %124, align 8
  %126 = zext i32 %125 to i64
  %127 = load ptr, ptr %10, align 8
  %128 = call zeroext i1 @wtap_dump_file_write(ptr noundef %120, ptr noundef %121, i64 noundef %126, ptr noundef %127)
  br i1 %128, label %130, label %129

129:                                              ; preds = %119
  store i1 false, ptr %6, align 1
  store i32 1, ptr %16, align 4
  br label %135

130:                                              ; preds = %119
  %131 = load ptr, ptr %12, align 8
  %132 = getelementptr inbounds nuw %struct.netxray_dump_t, ptr %131, i32 0, i32 2
  %133 = load i32, ptr %132, align 4
  %134 = add i32 %133, 1
  store i32 %134, ptr %132, align 4
  store i1 true, ptr %6, align 1
  store i32 1, ptr %16, align 4
  br label %135

135:                                              ; preds = %130, %129, %118, %64, %43, %35, %24
  call void @llvm.lifetime.end.p0(i64 28, ptr %15) #12
  call void @llvm.lifetime.end.p0(i64 4, ptr %14) #12
  call void @llvm.lifetime.end.p0(i64 8, ptr %13) #12
  call void @llvm.lifetime.end.p0(i64 8, ptr %12) #12
  %136 = load i1, ptr %6, align 1
  ret i1 %136
}