; Function Attrs: null_pointer_is_valid sspstrong uwtable
define internal noundef zeroext i1 @netxray_dump_1_1(ptr noundef %0, ptr noundef readonly captures(none) %1, ptr noundef %2, ptr noundef %3, ptr readnone captures(none) %4) #0 {
  %6 = alloca %struct.netxrayrec_1_x_hdr, align 4
  %7 = getelementptr inbounds nuw i8, ptr %0, i64 40
  %8 = load ptr, ptr %7, align 8
  call void @llvm.lifetime.start.p0(i64 28, ptr nonnull %6) #8
  %9 = load i32, ptr %1, align 8
  %.not = icmp eq i32 %9, 0
  br i1 %.not, label %11, label %10

10:                                               ; preds = %5
  store i32 -24, ptr %3, align 4
  br label %65

11:                                               ; preds = %5
  %12 = getelementptr inbounds nuw i8, ptr %0, i64 16
  %13 = load i32, ptr %12, align 8
  %14 = getelementptr inbounds nuw i8, ptr %1, i64 64
  %15 = getelementptr inbounds nuw i8, ptr %1, i64 72
  %16 = load i32, ptr %15, align 8
  %.not32 = icmp eq i32 %13, %16
  br i1 %.not32, label %18, label %17

17:                                               ; preds = %11
  store i32 -9, ptr %3, align 4
  br label %65

18:                                               ; preds = %11
  %19 = load i32, ptr %14, align 8
  %20 = icmp ugt i32 %19, 65535
  br i1 %20, label %21, label %22

21:                                               ; preds = %18
  store i32 -22, ptr %3, align 4
  br label %65

22:                                               ; preds = %18
  %23 = load i8, ptr %8, align 4, !range !6, !noundef !7
  %24 = trunc nuw i8 %23 to i1
  br i1 %24, label %25, label %._crit_edge

._crit_edge:                                      ; preds = %22
  %.phi.trans.insert = getelementptr inbounds nuw i8, ptr %8, i64 4
  %.pre = load i32, ptr %.phi.trans.insert, align 4
  br label %32

25:                                               ; preds = %22
  store i8 0, ptr %8, align 4
  %26 = getelementptr inbounds nuw i8, ptr %1, i64 16
  %27 = load i64, ptr %26, align 8
  %or.cond = icmp ugt i64 %27, 4294967295
  br i1 %or.cond, label %28, label %29

28:                                               ; preds = %25
  store i32 -27, ptr %3, align 4
  br label %65

29:                                               ; preds = %25
  %30 = trunc nuw i64 %27 to i32
  %31 = getelementptr inbounds nuw i8, ptr %8, i64 4
  store i32 %30, ptr %31, align 4
  %.pre33 = load i32, ptr %14, align 8
  br label %32

32:                                               ; preds = %._crit_edge, %29
  %33 = phi i32 [ %19, %._crit_edge ], [ %.pre33, %29 ]
  %34 = phi i32 [ %.pre, %._crit_edge ], [ %30, %29 ]
  %35 = getelementptr inbounds nuw i8, ptr %6, i64 12
  call void @llvm.memset.p0.i64(ptr noundef nonnull align 4 dereferenceable(28) %35, i8 noundef 0, i64 noundef 16, i1 noundef false) #8
  %36 = getelementptr inbounds nuw i8, ptr %1, i64 16
  %37 = load i64, ptr %36, align 8
  %38 = zext i32 %34 to i64
  %39 = sub i64 %37, %38
  %40 = mul i64 %39, 1000000
  %41 = getelementptr inbounds nuw i8, ptr %1, i64 24
  %42 = load i32, ptr %41, align 8
  %43 = sext i32 %42 to i64
  %44 = udiv i64 %43, 1000
  %45 = add i64 %40, %44
  %46 = trunc i64 %45 to i32
  store i32 %46, ptr %6, align 4
  %47 = lshr i64 %45, 32
  %48 = trunc nuw i64 %47 to i32
  %49 = getelementptr inbounds nuw i8, ptr %6, i64 4
  store i32 %48, ptr %49, align 4
  %50 = getelementptr inbounds nuw i8, ptr %1, i64 68
  %51 = load i32, ptr %50, align 4
  %52 = trunc i32 %51 to i16
  %53 = getelementptr inbounds nuw i8, ptr %6, i64 8
  store i16 %52, ptr %53, align 4
  %54 = trunc i32 %33 to i16
  %55 = getelementptr inbounds nuw i8, ptr %6, i64 10
  store i16 %54, ptr %55, align 2
  %56 = call zeroext i1 @wtap_dump_file_write(ptr noundef %0, ptr noundef nonnull %6, i64 noundef 28, ptr noundef %3)
  br i1 %56, label %57, label %65

57:                                               ; preds = %32
  %58 = load i32, ptr %14, align 8
  %59 = zext i32 %58 to i64
  %60 = call zeroext i1 @wtap_dump_file_write(ptr noundef %0, ptr noundef %2, i64 noundef %59, ptr noundef %3)
  br i1 %60, label %61, label %65

61:                                               ; preds = %57
  %62 = getelementptr inbounds nuw i8, ptr %8, i64 8
  %63 = load i32, ptr %62, align 4
  %64 = add i32 %63, 1
  store i32 %64, ptr %62, align 4
  br label %65

65:                                               ; preds = %57, %32, %61, %28, %21, %17, %10
  %.0 = phi i1 [ false, %10 ], [ false, %17 ], [ false, %21 ], [ false, %28 ], [ true, %61 ], [ false, %32 ], [ false, %57 ]
  call void @llvm.lifetime.end.p0(i64 28, ptr nonnull %6) #8
  ret i1 %.0
}